target datalayout = "e-m:e-p270:32:32-p271:32:32-p272:64:64-i64:64-i128:128-f80:128-n8:16:32:64-S128"
target triple = "x86_64-pc-linux-gnu"

%struct.H264Ref = type { [3 x ptr], [3 x i32], i32, i32, i32, ptr }
%struct.MMCO = type { i32, i32, i32 }
%struct.H264Context = type { ptr, ptr, %struct.VideoDSPContext, %struct.H264DSPContext, %struct.H264ChromaContext, %struct.H264QpelContext, %struct.H274FilmGrainDatabase, [36 x %struct.H264Picture], ptr, %struct.H264Picture, %struct.H264Picture, ptr, i32, i32, %struct.H2645Packet, i32, i32, i32, i32, i32, i32, i32, i32, i32, i32, i32, i32, i32, i32, i32, i32, i32, ptr, %struct.H264PredContext, ptr, [96 x i32], ptr, ptr, i32, ptr, i32, i32, i32, ptr, ptr, ptr, [2 x ptr], ptr, [16 x i8], [16 x i8], [64 x i8], [64 x i8], [16 x i8], [64 x i8], [64 x i8], [16 x i8], [64 x i8], [64 x i8], [16 x i8], [64 x i8], [64 x i8], i32, i32, i32, i32, i32, i32, i32, i32, i32, i32, i32, i32, %struct.H264ParamSets, ptr, %struct.H264POCContext, [2 x %struct.H264Ref], [32 x ptr], [32 x ptr], [18 x ptr], [16 x i32], ptr, i32, i32, [67 x %struct.MMCO], i32, i32, i32, i32, i32, i32, i32, i32, i32, i32, i32, i32, i32, i32, i32, [32 x i16], i32, i32, i32, %struct.ERContext, ptr, %struct.H264SEIContext, ptr, ptr, ptr, ptr, ptr, [32 x [2 x [64 x i32]]], i32, i32, i32 }
%struct.VideoDSPContext = type { ptr, ptr }
%struct.H264DSPContext = type { [4 x ptr], [4 x ptr], ptr, ptr, ptr, ptr, ptr, ptr, ptr, ptr, ptr, ptr, ptr, ptr, ptr, ptr, ptr, ptr, ptr, ptr, ptr, ptr, ptr, ptr, ptr, ptr, ptr, ptr }
%struct.H264ChromaContext = type { [4 x ptr], [4 x ptr] }
%struct.H264QpelContext = type { [4 x [16 x ptr]], [4 x [16 x ptr]] }
%struct.H274FilmGrainDatabase = type { [13 x [13 x [64 x [64 x i8]]]], [13 x i16], [64 x [64 x i16]] }
%struct.H264Picture = type { ptr, %struct.ThreadFrame, ptr, ptr, ptr, [2 x ptr], [2 x ptr], ptr, ptr, ptr, [2 x ptr], [2 x i32], i32, i32, i32, i32, i32, [2 x [2 x [32 x i32]]], [2 x [2 x i32]], i32, i32, i32, i32, i32, i32, i32, ptr, i32, i32, i32, ptr, i32 }
%struct.ThreadFrame = type { ptr, [2 x ptr], ptr }
%struct.H2645Packet = type { ptr, %struct.H2645RBSP, i32, i32, i32 }
%struct.H2645RBSP = type { ptr, ptr, i32, i32 }
%struct.H264PredContext = type { [15 x ptr], [12 x ptr], [11 x ptr], [9 x ptr], [2 x ptr], [2 x ptr], [2 x ptr], [3 x ptr], [3 x ptr] }
%struct.H264ParamSets = type { [32 x ptr], [256 x ptr], ptr, ptr, [2 x i32] }
%struct.H264POCContext = type { i32, i32, i32, [2 x i32], i32, i32, i32, i32, i32, i32 }
%struct.ERContext = type { ptr, ptr, i32, ptr, i32, i32, i32, i64, i64, i32, i32, ptr, ptr, [3 x ptr], ptr, ptr, [2 x [4 x [2 x i32]]], %struct.ERPicture, %struct.ERPicture, %struct.ERPicture, [2 x ptr], [2 x ptr], i16, i16, i32, i32, ptr, ptr }
%struct.ERPicture = type { ptr, ptr, ptr, [2 x ptr], [2 x ptr], ptr, i32 }
%struct.H264SEIContext = type { %struct.H2645SEI, %struct.H264SEIPictureTiming, %struct.H264SEIRecoveryPoint, %struct.H264SEIBufferingPeriod, %struct.H264SEIGreenMetaData }
%struct.H2645SEI = type { %struct.H2645SEIA53Caption, %struct.H2645SEIAFD, %struct.HEVCSEIDynamicHDRPlus, %struct.HEVCSEIDynamicHDRVivid, %struct.HEVCSEILCEVC, %struct.H2645SEIUnregistered, %struct.H2645SEIFramePacking, %struct.H2645SEIDisplayOrientation, %struct.H2645SEIAlternativeTransfer, %struct.H2645SEIAmbientViewingEnvironment, %struct.H2645SEIMasteringDisplay, %struct.H2645SEIContentLight, %struct.AVFilmGrainAFGS1Params, ptr }
%struct.H2645SEIA53Caption = type { ptr }
%struct.H2645SEIAFD = type { i32, i8 }
%struct.HEVCSEIDynamicHDRPlus = type { ptr }
%struct.HEVCSEIDynamicHDRVivid = type { ptr }
%struct.HEVCSEILCEVC = type { ptr }
%struct.H2645SEIUnregistered = type { ptr, i32, i32 }
%struct.H2645SEIFramePacking = type { i32, i32, i32, i32, i32, i32, i32, i32 }
%struct.H2645SEIDisplayOrientation = type { i32, i32, i32, i32 }
%struct.H2645SEIAlternativeTransfer = type { i32, i32 }
%struct.H2645SEIAmbientViewingEnvironment = type { i32, i32, i16, i16 }
%struct.H2645SEIMasteringDisplay = type { i32, [3 x [2 x i16]], [2 x i16], i32, i32 }
%struct.H2645SEIContentLight = type { i32, i16, i16 }
%struct.AVFilmGrainAFGS1Params = type { i32, [8 x ptr] }
%struct.H264SEIPictureTiming = type { [40 x i8], i32, i32, i32, i32, i32, i32, [3 x %struct.H264SEITimeCode], i32 }
%struct.H264SEITimeCode = type { i32, i32, i32, i32, i32, i32 }
%struct.H264SEIRecoveryPoint = type { i32 }
%struct.H264SEIBufferingPeriod = type { i32, [32 x i32] }
%struct.H264SEIGreenMetaData = type { i8, i8, i16, i16, i8, i8, i8, i8, i8, i16 }
%struct.AVFrame = type { [8 x ptr], [8 x i32], ptr, i32, i32, i32, i32, i32, %struct.AVRational, i64, i64, %struct.AVRational, i32, ptr, i32, i32, [8 x ptr], ptr, i32, ptr, i32, i32, i32, i32, i32, i32, i32, i64, ptr, i32, ptr, ptr, i64, i64, i64, i64, ptr, %struct.AVChannelLayout, i64 }
%struct.AVRational = type { i32, i32 }
%struct.AVChannelLayout = type { i32, i32, %union.anon, ptr }
%union.anon = type { i64 }

; Function Attrs: inlinehint nounwind uwtable
define internal i32 @unreference_pic(ptr noundef %0, ptr noundef %1, i32 noundef %2) #6 {
  %4 = alloca i32, align 4
  %5 = alloca ptr, align 8
  %6 = alloca ptr, align 8
  %7 = alloca i32, align 4
  %8 = alloca i32, align 4
  %9 = alloca i32, align 4
  store ptr %0, ptr %5, align 8, !tbaa !4
  store ptr %1, ptr %6, align 8, !tbaa !25
  store i32 %2, ptr %7, align 4, !tbaa !11
  %10 = load i32, ptr %7, align 4, !tbaa !11
  %11 = load ptr, ptr %6, align 8, !tbaa !25
  %12 = getelementptr inbounds nuw %struct.H264Picture, ptr %11, i32 0, i32 21
  %13 = load i32, ptr %12, align 4, !tbaa !82
  %14 = and i32 %13, %10
  store i32 %14, ptr %12, align 4, !tbaa !82
  %15 = icmp ne i32 %14, 0
  br i1 %15, label %16, label %17

16:                                               ; preds = %3
  store i32 0, ptr %4, align 4
  br label %45

17:                                               ; preds = %3
  call void @llvm.lifetime.start.p0(i64 4, ptr %8) #8
  store i32 0, ptr %8, align 4, !tbaa !11
  br label %18

18:                                               ; preds = %40, %17
  %19 = load ptr, ptr %5, align 8, !tbaa !4
  %20 = getelementptr inbounds nuw %struct.H264Context, ptr %19, i32 0, i32 79
  %21 = load i32, ptr %8, align 4, !tbaa !11
  %22 = sext i32 %21 to i64
  %23 = getelementptr inbounds [18 x ptr], ptr %20, i64 0, i64 %22
  %24 = load ptr, ptr %23, align 8, !tbaa !25
  %25 = icmp ne ptr %24, null
  br i1 %25, label %27, label %26

26:                                               ; preds = %18
  store i32 2, ptr %9, align 4
  br label %43

27:                                               ; preds = %18
  %28 = load ptr, ptr %6, align 8, !tbaa !25
  %29 = load ptr, ptr %5, align 8, !tbaa !4
  %30 = getelementptr inbounds nuw %struct.H264Context, ptr %29, i32 0, i32 79
  %31 = load i32, ptr %8, align 4, !tbaa !11
  %32 = sext i32 %31 to i64
  %33 = getelementptr inbounds [18 x ptr], ptr %30, i64 0, i64 %32
  %34 = load ptr, ptr %33, align 8, !tbaa !25
  %35 = icmp eq ptr %28, %34
  br i1 %35, label %36, label %39

36:                                               ; preds = %27
  %37 = load ptr, ptr %6, align 8, !tbaa !25
  %38 = getelementptr inbounds nuw %struct.H264Picture, ptr %37, i32 0, i32 21
  store i32 4, ptr %38, align 4, !tbaa !82
  store i32 2, ptr %9, align 4
  br label %43

39:                                               ; preds = %27
  br label %40

40:                                               ; preds = %39
  %41 = load i32, ptr %8, align 4, !tbaa !11
  %42 = add nsw i32 %41, 1
  store i32 %42, ptr %8, align 4, !tbaa !11
  br label %18, !llvm.loop !161

43:                                               ; preds = %36, %26
  call void @llvm.lifetime.end.p0(i64 4, ptr %8) #8
  br label %44

44:                                               ; preds = %43
  store i32 1, ptr %4, align 4
  br label %45

45:                                               ; preds = %44, %16
  %46 = load i32, ptr %4, align 4
  ret i32 %46
}

; Function Attrs: nounwind uwtable
define internal ptr @remove_long(ptr noundef %0, i32 noundef %1, i32 noundef %2) #0 {
  %4 = alloca ptr, align 8
  %5 = alloca i32, align 4
  %6 = alloca i32, align 4
  %7 = alloca ptr, align 8
  store ptr %0, ptr %4, align 8, !tbaa !4
  store i32 %1, ptr %5, align 4, !tbaa !11
  store i32 %2, ptr %6, align 4, !tbaa !11
  call void @llvm.lifetime.start.p0(i64 8, ptr %7) #8
  %8 = load ptr, ptr %4, align 8, !tbaa !4
  %9 = getelementptr inbounds nuw %struct.H264Context, ptr %8, i32 0, i32 78
  %10 = load i32, ptr %5, align 4, !tbaa !11
  %11 = sext i32 %10 to i64
  %12 = getelementptr inbounds [32 x ptr], ptr %9, i64 0, i64 %11
  %13 = load ptr, ptr %12, align 8, !tbaa !25
  store ptr %13, ptr %7, align 8, !tbaa !25
  %14 = load ptr, ptr %7, align 8, !tbaa !25
  %15 = icmp ne ptr %14, null
  br i1 %15, label %16, label %40

16:                                               ; preds = %3
  %17 = load ptr, ptr %4, align 8, !tbaa !4
  %18 = load ptr, ptr %7, align 8, !tbaa !25
  %19 = load i32, ptr %6, align 4, !tbaa !11
  %20 = call i32 @unreference_pic(ptr noundef %17, ptr noundef %18, i32 noundef %19)
  %21 = icmp ne i32 %20, 0
  br i1 %21, label %22, label %39

22:                                               ; preds = %16
  %23 = load ptr, ptr %4, align 8, !tbaa !4
  %24 = getelementptr inbounds nuw %struct.H264Context, ptr %23, i32 0, i32 78
  %25 = load i32, ptr %5, align 4, !tbaa !11
  %26 = sext i32 %25 to i64
  %27 = getelementptr inbounds [32 x ptr], ptr %24, i64 0, i64 %26
  %28 = load ptr, ptr %27, align 8, !tbaa !25
  %29 = getelementptr inbounds nuw %struct.H264Picture, ptr %28, i32 0, i32 16
  store i32 0, ptr %29, align 8, !tbaa !87
  %30 = load ptr, ptr %4, align 8, !tbaa !4
  %31 = getelementptr inbounds nuw %struct.H264Context, ptr %30, i32 0, i32 78
  %32 = load i32, ptr %5, align 4, !tbaa !11
  %33 = sext i32 %32 to i64
  %34 = getelementptr inbounds [32 x ptr], ptr %31, i64 0, i64 %33
  store ptr null, ptr %34, align 8, !tbaa !25
  %35 = load ptr, ptr %4, align 8, !tbaa !4
  %36 = getelementptr inbounds nuw %struct.H264Context, ptr %35, i32 0, i32 88
  %37 = load i32, ptr %36, align 8, !tbaa !160
  %38 = add nsw i32 %37, -1
  store i32 %38, ptr %36, align 8, !tbaa !160
  br label %39

39:                                               ; preds = %22, %16
  br label %40

40:                                               ; preds = %39, %3
  %41 = load ptr, ptr %7, align 8, !tbaa !25
  call void @llvm.lifetime.end.p0(i64 8, ptr %7) #8
  ret ptr %41
}

; Function Attrs: nounwind uwtable
define void @ff_h264_remove_all_refs(ptr noundef %0) #0 {
  %2 = alloca ptr, align 8
  %3 = alloca i32, align 4
  %4 = alloca i32, align 4
  store ptr %0, ptr %2, align 8, !tbaa !4
  call void @llvm.lifetime.start.p0(i64 4, ptr %3) #8
  store i32 0, ptr %3, align 4, !tbaa !11
  br label %5

5:                                                ; preds = %13, %1
  %6 = load i32, ptr %3, align 4, !tbaa !11
  %7 = icmp slt i32 %6, 16
  br i1 %7, label %9, label %8

8:                                                ; preds = %5
  call void @llvm.lifetime.end.p0(i64 4, ptr %3) #8
  br label %16

9:                                                ; preds = %5
  %10 = load ptr, ptr %2, align 8, !tbaa !4
  %11 = load i32, ptr %3, align 4, !tbaa !11
  %12 = call ptr @remove_long(ptr noundef %10, i32 noundef %11, i32 noundef 0)
  br label %13

13:                                               ; preds = %9
  %14 = load i32, ptr %3, align 4, !tbaa !11
  %15 = add nsw i32 %14, 1
  store i32 %15, ptr %3, align 4, !tbaa !11
  br label %5, !llvm.loop !157

16:                                               ; preds = %8
  %17 = load ptr, ptr %2, align 8, !tbaa !4
  %18 = getelementptr inbounds nuw %struct.H264Context, ptr %17, i32 0, i32 89
  %19 = load i32, ptr %18, align 4, !tbaa !80
  %20 = icmp ne i32 %19, 0
  br i1 %20, label %21, label %40

21:                                               ; preds = %16
  %22 = load ptr, ptr %2, align 8, !tbaa !4
  %23 = getelementptr inbounds nuw %struct.H264Context, ptr %22, i32 0, i32 10
  %24 = getelementptr inbounds nuw %struct.H264Picture, ptr %23, i32 0, i32 0
  %25 = load ptr, ptr %24, align 8, !tbaa !158
  %26 = getelementptr inbounds nuw %struct.AVFrame, ptr %25, i32 0, i32 0
  %27 = getelementptr inbounds [8 x ptr], ptr %26, i64 0, i64 0
  %28 = load ptr, ptr %27, align 8, !tbaa !121
  %29 = icmp ne ptr %28, null
  br i1 %29, label %40, label %30

30:                                               ; preds = %21
  %31 = load ptr, ptr %2, align 8, !tbaa !4
  %32 = getelementptr inbounds nuw %struct.H264Context, ptr %31, i32 0, i32 10
  call void @ff_h264_unref_picture(ptr noundef %32)
  %33 = load ptr, ptr %2, align 8, !tbaa !4
  %34 = getelementptr inbounds nuw %struct.H264Context, ptr %33, i32 0, i32 10
  %35 = load ptr, ptr %2, align 8, !tbaa !4
  %36 = getelementptr inbounds nuw %struct.H264Context, ptr %35, i32 0, i32 77
  %37 = getelementptr inbounds [32 x ptr], ptr %36, i64 0, i64 0
  %38 = load ptr, ptr %37, align 8, !tbaa !25
  %39 = call i32 @ff_h264_ref_picture(ptr noundef %34, ptr noundef %38)
  br label %40

40:                                               ; preds = %30, %21, %16
  call void @llvm.lifetime.start.p0(i64 4, ptr %4) #8
  store i32 0, ptr %4, align 4, !tbaa !11
  br label %41

41:                                               ; preds = %62, %40
  %42 = load i32, ptr %4, align 4, !tbaa !11
  %43 = load ptr, ptr %2, align 8, !tbaa !4
  %44 = getelementptr inbounds nuw %struct.H264Context, ptr %43, i32 0, i32 89
  %45 = load i32, ptr %44, align 4, !tbaa !80
  %46 = icmp slt i32 %42, %45
  br i1 %46, label %48, label %47

47:                                               ; preds = %41
  call void @llvm.lifetime.end.p0(i64 4, ptr %4) #8
  br label %65

48:                                               ; preds = %41
  %49 = load ptr, ptr %2, align 8, !tbaa !4
  %50 = load ptr, ptr %2, align 8, !tbaa !4
  %51 = getelementptr inbounds nuw %struct.H264Context, ptr %50, i32 0, i32 77
  %52 = load i32, ptr %4, align 4, !tbaa !11
  %53 = sext i32 %52 to i64
  %54 = getelementptr inbounds [32 x ptr], ptr %51, i64 0, i64 %53
  %55 = load ptr, ptr %54, align 8, !tbaa !25
  %56 = call i32 @unreference_pic(ptr noundef %49, ptr noundef %55, i32 noundef 0)
  %57 = load ptr, ptr %2, align 8, !tbaa !4
  %58 = getelementptr inbounds nuw %struct.H264Context, ptr %57, i32 0, i32 77
  %59 = load i32, ptr %4, align 4, !tbaa !11
  %60 = sext i32 %59 to i64
  %61 = getelementptr inbounds [32 x ptr], ptr %58, i64 0, i64 %60
  store ptr null, ptr %61, align 8, !tbaa !25
  br label %62

62:                                               ; preds = %48
  %63 = load i32, ptr %4, align 4, !tbaa !11
  %64 = add nsw i32 %63, 1
  store i32 %64, ptr %4, align 4, !tbaa !11
  br label %41, !llvm.loop !159

65:                                               ; preds = %47
  %66 = load ptr, ptr %2, align 8, !tbaa !4
  %67 = getelementptr inbounds nuw %struct.H264Context, ptr %66, i32 0, i32 89
  store i32 0, ptr %67, align 4, !tbaa !80
  %68 = load ptr, ptr %2, align 8, !tbaa !4
  %69 = getelementptr inbounds nuw %struct.H264Context, ptr %68, i32 0, i32 76
  %70 = getelementptr inbounds [2 x %struct.H264Ref], ptr %69, i64 0, i64 0
  call void @llvm.memset.p0.i64(ptr align 8 %70, i8 0, i64 112, i1 false)
  ret void
}