; Function Attrs: nounwind uwtable
define void @ff_h264_remove_all_refs(ptr noundef %0) local_unnamed_addr #0 {
  %2 = getelementptr inbounds nuw i8, ptr %0, i64 735224
  %3 = getelementptr inbounds nuw i8, ptr %0, i64 735480
  %4 = getelementptr inbounds nuw i8, ptr %0, i64 736520
  br label %8

5:                                                ; preds = %remove_long.exit
  %6 = getelementptr inbounds nuw i8, ptr %0, i64 736524
  %7 = load i32, ptr %6, align 4, !tbaa !76
  %.not = icmp eq i32 %7, 0
  br i1 %.not, label %._crit_edge, label %23

8:                                                ; preds = %1, %remove_long.exit
  %indvars.iv = phi i64 [ 0, %1 ], [ %indvars.iv.next, %remove_long.exit ]
  %9 = getelementptr inbounds nuw [32 x ptr], ptr %2, i64 0, i64 %indvars.iv
  %10 = load ptr, ptr %9, align 8, !tbaa !77
  %.not.i = icmp eq ptr %10, null
  br i1 %.not.i, label %remove_long.exit, label %11

11:                                               ; preds = %8
  %12 = getelementptr inbounds nuw i8, ptr %10, i64 700
  store i32 0, ptr %12, align 4, !tbaa !121
  %13 = load ptr, ptr %3, align 8, !tbaa !77
  %.not1112.i.i = icmp eq ptr %13, null
  br i1 %.not1112.i.i, label %.loopexit.i, label %.lr.ph.i.i

14:                                               ; preds = %.lr.ph.i.i
  %indvars.iv.next.i.i = add nuw nsw i64 %indvars.iv.i.i, 1
  %15 = getelementptr inbounds nuw [18 x ptr], ptr %3, i64 0, i64 %indvars.iv.next.i.i
  %16 = load ptr, ptr %15, align 8, !tbaa !77
  %.not11.i.i = icmp eq ptr %16, null
  br i1 %.not11.i.i, label %.loopexit.i, label %.lr.ph.i.i, !llvm.loop !149

.lr.ph.i.i:                                       ; preds = %11, %14
  %indvars.iv.i.i = phi i64 [ %indvars.iv.next.i.i, %14 ], [ 0, %11 ]
  %17 = phi ptr [ %16, %14 ], [ %13, %11 ]
  %18 = icmp eq ptr %10, %17
  br i1 %18, label %19, label %14

19:                                               ; preds = %.lr.ph.i.i
  store i32 4, ptr %12, align 4, !tbaa !121
  br label %.loopexit.i

.loopexit.i:                                      ; preds = %14, %19, %11
  %20 = getelementptr inbounds nuw i8, ptr %10, i64 160
  store i32 0, ptr %20, align 8, !tbaa !123
  store ptr null, ptr %9, align 8, !tbaa !77
  %21 = load i32, ptr %4, align 8, !tbaa !150
  %22 = add nsw i32 %21, -1
  store i32 %22, ptr %4, align 8, !tbaa !150
  br label %remove_long.exit

remove_long.exit:                                 ; preds = %8, %.loopexit.i
  %indvars.iv.next = add nuw nsw i64 %indvars.iv, 1
  %exitcond.not = icmp eq i64 %indvars.iv.next, 16
  br i1 %exitcond.not, label %5, label %8, !llvm.loop !151

23:                                               ; preds = %5
  %24 = getelementptr inbounds nuw i8, ptr %0, i64 729968
  %25 = load ptr, ptr %24, align 8, !tbaa !152
  %26 = load ptr, ptr %25, align 8, !tbaa !81
  %.not19 = icmp eq ptr %26, null
  br i1 %.not19, label %27, label %31

27:                                               ; preds = %23
  tail call void @ff_h264_unref_picture(ptr noundef nonnull %24) #7
  %28 = getelementptr inbounds nuw i8, ptr %0, i64 734968
  %29 = load ptr, ptr %28, align 8, !tbaa !77
  %30 = tail call i32 @ff_h264_ref_picture(ptr noundef nonnull %24, ptr noundef %29) #7
  %.pre = load i32, ptr %6, align 4, !tbaa !76
  br label %31

31:                                               ; preds = %27, %23
  %32 = phi i32 [ %.pre, %27 ], [ %7, %23 ]
  %33 = icmp sgt i32 %32, 0
  br i1 %33, label %.lr.ph, label %._crit_edge

.lr.ph:                                           ; preds = %31
  %34 = getelementptr inbounds nuw i8, ptr %0, i64 734968
  %wide.trip.count = zext nneg i32 %32 to i64
  br label %36

._crit_edge:                                      ; preds = %unreference_pic.exit, %5, %31
  store i32 0, ptr %6, align 4, !tbaa !76
  %35 = getelementptr inbounds nuw i8, ptr %0, i64 734856
  tail call void @llvm.memset.p0.i64(ptr noundef nonnull align 8 dereferenceable(112) %35, i8 0, i64 112, i1 false)
  ret void

36:                                               ; preds = %.lr.ph, %unreference_pic.exit
  %indvars.iv25 = phi i64 [ 0, %.lr.ph ], [ %indvars.iv.next26, %unreference_pic.exit ]
  %37 = getelementptr inbounds nuw [32 x ptr], ptr %34, i64 0, i64 %indvars.iv25
  %38 = load ptr, ptr %37, align 8, !tbaa !77
  %39 = getelementptr inbounds nuw i8, ptr %38, i64 700
  store i32 0, ptr %39, align 4, !tbaa !121
  %40 = load ptr, ptr %3, align 8, !tbaa !77
  %.not1112.i = icmp eq ptr %40, null
  br i1 %.not1112.i, label %unreference_pic.exit, label %.lr.ph.i

41:                                               ; preds = %.lr.ph.i
  %indvars.iv.next.i = add nuw nsw i64 %indvars.iv.i, 1
  %42 = getelementptr inbounds nuw [18 x ptr], ptr %3, i64 0, i64 %indvars.iv.next.i
  %43 = load ptr, ptr %42, align 8, !tbaa !77
  %.not11.i = icmp eq ptr %43, null
  br i1 %.not11.i, label %unreference_pic.exit, label %.lr.ph.i, !llvm.loop !149

.lr.ph.i:                                         ; preds = %36, %41
  %indvars.iv.i = phi i64 [ %indvars.iv.next.i, %41 ], [ 0, %36 ]
  %44 = phi ptr [ %43, %41 ], [ %40, %36 ]
  %45 = icmp eq ptr %38, %44
  br i1 %45, label %46, label %41

46:                                               ; preds = %.lr.ph.i
  store i32 4, ptr %39, align 4, !tbaa !121
  br label %unreference_pic.exit

unreference_pic.exit:                             ; preds = %41, %36, %46
  store ptr null, ptr %37, align 8, !tbaa !77
  %indvars.iv.next26 = add nuw nsw i64 %indvars.iv25, 1
  %exitcond28.not = icmp eq i64 %indvars.iv.next26, %wide.trip.count
  br i1 %exitcond28.not, label %._crit_edge, label %36, !llvm.loop !153
}